; Function Attrs: mustprogress uwtable
define internal void @_ZN2cvL17batchDistHamming2EPKhS1_miiPiS1_(ptr noundef %0, ptr noundef %1, i64 noundef %2, i32 noundef %3, i32 noundef %4, ptr nocapture noundef writeonly %5, ptr noundef readonly %6) #0 {
  %.not = icmp eq ptr %6, null
  %8 = icmp sgt i32 %3, 0
  br i1 %.not, label %.preheader, label %.preheader29

.preheader29:                                     ; preds = %7
  br i1 %8, label %.lr.ph.preheader, label %.loopexit

.lr.ph.preheader:                                 ; preds = %.preheader29
  %wide.trip.count = zext nneg i32 %3 to i64
  br label %.lr.ph

.preheader:                                       ; preds = %7
  br i1 %8, label %.lr.ph33.preheader, label %.loopexit

.lr.ph33.preheader:                               ; preds = %.preheader
  %wide.trip.count39 = zext nneg i32 %3 to i64
  br label %.lr.ph33

.lr.ph33:                                         ; preds = %.lr.ph33.preheader, %.lr.ph33
  %indvars.iv36 = phi i64 [ 0, %.lr.ph33.preheader ], [ %indvars.iv.next37, %.lr.ph33 ]
  %9 = mul i64 %indvars.iv36, %2
  %10 = getelementptr inbounds i8, ptr %1, i64 %9
  %11 = tail call noundef i32 @_ZN2cv3hal11normHammingEPKhS2_ii(ptr noundef %0, ptr noundef %10, i32 noundef %4, i32 noundef 2)
  %12 = getelementptr inbounds i32, ptr %5, i64 %indvars.iv36
  store i32 %11, ptr %12, align 4
  %indvars.iv.next37 = add nuw nsw i64 %indvars.iv36, 1
  %exitcond40.not = icmp eq i64 %indvars.iv.next37, %wide.trip.count39
  br i1 %exitcond40.not, label %.loopexit, label %.lr.ph33, !llvm.loop !49

.lr.ph:                                           ; preds = %.lr.ph.preheader, %19
  %indvars.iv = phi i64 [ 0, %.lr.ph.preheader ], [ %indvars.iv.next, %19 ]
  %13 = getelementptr inbounds i8, ptr %6, i64 %indvars.iv
  %14 = load i8, ptr %13, align 1
  %.not28 = icmp eq i8 %14, 0
  br i1 %.not28, label %19, label %15

15:                                               ; preds = %.lr.ph
  %16 = mul i64 %indvars.iv, %2
  %17 = getelementptr inbounds i8, ptr %1, i64 %16
  %18 = tail call noundef i32 @_ZN2cv3hal11normHammingEPKhS2_ii(ptr noundef %0, ptr noundef %17, i32 noundef %4, i32 noundef 2)
  br label %19

19:                                               ; preds = %.lr.ph, %15
  %.sink = phi i32 [ %18, %15 ], [ 2147483647, %.lr.ph ]
  %20 = getelementptr inbounds i32, ptr %5, i64 %indvars.iv
  store i32 %.sink, ptr %20, align 4
  %indvars.iv.next = add nuw nsw i64 %indvars.iv, 1
  %exitcond.not = icmp eq i64 %indvars.iv.next, %wide.trip.count
  br i1 %exitcond.not, label %.loopexit, label %.lr.ph, !llvm.loop !50

.loopexit:                                        ; preds = %19, %.lr.ph33, %.preheader29, %.preheader
  ret void
}